; Function Attrs: mustprogress nofree nounwind memory(write, argmem: readwrite) uwtable
define hidden void @_ZNK4nori7Color3f6toSRGBEv(ptr dead_on_unwind noalias nocapture writable writeonly sret(%"struct.nori::Color3f") align 4 %0, ptr nocapture noundef nonnull readonly align 4 dereferenceable(12) %1) local_unnamed_addr #10 align 2 personality ptr @__gxx_personality_v0 {
  store <2 x float> zeroinitializer, ptr %0, align 4
  %3 = getelementptr inbounds i8, ptr %0, i64 8
  store float 0.000000e+00, ptr %3, align 4
  br label %4

4:                                                ; preds = %2, %13
  %indvars.iv = phi i64 [ 0, %2 ], [ %indvars.iv.next, %13 ]
  %5 = getelementptr inbounds float, ptr %1, i64 %indvars.iv
  %6 = load float, ptr %5, align 4
  %7 = fcmp ugt float %6, 0x3F69A5C380000000
  br i1 %7, label %10, label %8

8:                                                ; preds = %4
  %9 = fmul float %6, 0x4029D70A40000000
  br label %13

10:                                               ; preds = %4
  %11 = tail call noundef float @powf(float noundef %6, float noundef 0x3FDAAAAAA0000000) #26
  %12 = tail call float @llvm.fmuladd.f32(float %11, float 0x3FF0E147A0000000, float 0xBFAC28F5C0000000)
  br label %13

13:                                               ; preds = %8, %10
  %.sink = phi float [ %12, %10 ], [ %9, %8 ]
  %14 = getelementptr inbounds float, ptr %0, i64 %indvars.iv
  store float %.sink, ptr %14, align 4
  %indvars.iv.next = add nuw nsw i64 %indvars.iv, 1
  %exitcond.not = icmp eq i64 %indvars.iv.next, 3
  br i1 %exitcond.not, label %15, label %4, !llvm.loop !23

15:                                               ; preds = %13
  ret void
}